ccopy_reg
_reconstructor
p0
(clemming.level
Level
p1
c__builtin__
object
p2
Ntp3
Rp4
(dp5
S'tile_count_y'
p6
I0
sS'start'
p7
g0
(clemming.vec2d
Vec2d
p8
g2
Ntp9
Rp10
(lp11
F164.0
aF459.0
absS'squares'
p12
(dp13
(I15
I27
tp14
g0
(clemming.level
Square
p15
g2
Ntp16
Rp17
(dp18
S'tile'
p19
I1
sbs(I30
I26
tp20
g0
(g15
g2
Ntp21
Rp22
(dp23
g19
I5
sbs(I20
I25
tp24
g0
(g15
g2
Ntp25
Rp26
(dp27
S'tile'
p28
I5
sbs(I45
I26
tp29
g0
(g15
g2
Ntp30
Rp31
(dp32
g19
I5
sbs(I46
I25
tp33
g0
(g15
g2
Ntp34
Rp35
(dp36
g19
I5
sbs(I51
I27
tp37
g0
(g15
g2
Ntp38
Rp39
(dp40
g19
I1
sbs(I42
I25
tp41
g0
(g15
g2
Ntp42
Rp43
(dp44
g19
I5
sbs(I16
I28
tp45
g0
(g15
g2
Ntp46
Rp47
(dp48
g19
I0
sbs(I17
I25
tp49
g0
(g15
g2
Ntp50
Rp51
(dp52
g19
I5
sbs(I23
I26
tp53
g0
(g15
g2
Ntp54
Rp55
(dp56
g19
I5
sbs(I38
I27
tp57
g0
(g15
g2
Ntp58
Rp59
(dp60
g19
I1
sbs(I28
I26
tp61
g0
(g15
g2
Ntp62
Rp63
(dp64
g19
I5
sbs(I44
I23
tp65
g0
(g15
g2
Ntp66
Rp67
(dp68
g19
I5
sbs(I43
I25
tp69
g0
(g15
g2
Ntp70
Rp71
(dp72
g19
I5
sbs(I29
I27
tp73
g0
(g15
g2
Ntp74
Rp75
(dp76
g19
I1
sbs(I46
I23
tp77
g0
(g15
g2
Ntp78
Rp79
(dp80
g19
I5
sbs(I24
I27
tp81
g0
(g15
g2
Ntp82
Rp83
(dp84
g19
I1
sbs(I30
I23
tp85
g0
(g15
g2
Ntp86
Rp87
(dp88
g19
I5
sbs(I42
I15
tp89
g0
(g15
g2
Ntp90
Rp91
(dp92
g28
I0
sbs(I46
I26
tp93
g0
(g15
g2
Ntp94
Rp95
(dp96
g19
I5
sbs(I11
I27
tp97
g0
(g15
g2
Ntp98
Rp99
(dp100
g19
I1
sbs(I42
I26
tp101
g0
(g15
g2
Ntp102
Rp103
(dp104
g19
I5
sbs(I16
I25
tp105
g0
(g15
g2
Ntp106
Rp107
(dp108
g19
I5
sbs(I21
I23
tp109
g0
(g15
g2
Ntp110
Rp111
(dp112
g19
I5
sbs(I37
I23
tp113
g0
(g15
g2
Ntp114
Rp115
(dp116
g19
I5
sbs(I23
I25
tp117
g0
(g15
g2
Ntp118
Rp119
(dp120
g28
I5
sbs(I29
I17
tp121
g0
(g15
g2
Ntp122
Rp123
(dp124
g28
I0
sbs(I33
I25
tp125
g0
(g15
g2
Ntp126
Rp127
(dp128
g19
I6
sbs(I32
I15
tp129
g0
(g15
g2
Ntp130
Rp131
(dp132
g28
I0
sbs(I45
I25
tp133
g0
(g15
g2
Ntp134
Rp135
(dp136
g19
I5
sbs(I33
I14
tp137
g0
(g15
g2
Ntp138
Rp139
(dp140
g28
I0
sbs(I31
I15
tp141
g0
(g15
g2
Ntp142
Rp143
(dp144
g28
I0
sbs(I19
I24
tp145
g0
(g15
g2
Ntp146
Rp147
(dp148
g19
I5
sbs(I10
I24
tp149
g0
(g15
g2
Ntp150
Rp151
(dp152
g19
I5
sbs(I1
I40
tp153
g0
(g15
g2
Ntp154
Rp155
(dp156
g19
I1
sbs(I24
I24
tp157
g0
(g15
g2
Ntp158
Rp159
(dp160
g19
I5
sbs(I31
I24
tp161
g0
(g15
g2
Ntp162
Rp163
(dp164
g19
I1
sbs(I30
I16
tp165
g0
(g15
g2
Ntp166
Rp167
(dp168
g28
I0
sbs(I36
I24
tp169
g0
(g15
g2
Ntp170
Rp171
(dp172
g19
I1
sbs(I10
I23
tp173
g0
(g15
g2
Ntp174
Rp175
(dp176
g19
I5
sbs(I25
I21
tp177
g0
(g15
g2
Ntp178
Rp179
(dp180
g19
I0
sbs(I41
I24
tp181
g0
(g15
g2
Ntp182
Rp183
(dp184
g19
I5
sbs(I41
I23
tp185
g0
(g15
g2
Ntp186
Rp187
(dp188
g19
I5
sbs(I38
I15
tp189
g0
(g15
g2
Ntp190
Rp191
(dp192
g28
I0
sbs(I27
I22
tp193
g0
(g15
g2
Ntp194
Rp195
(dp196
g28
I0
sbs(I26
I18
tp197
g0
(g15
g2
Ntp198
Rp199
(dp200
g19
I0
sbs(I22
I25
tp201
g0
(g15
g2
Ntp202
Rp203
(dp204
g28
I5
sbs(I13
I23
tp205
g0
(g15
g2
Ntp206
Rp207
(dp208
g19
I5
sbs(I28
I17
tp209
g0
(g15
g2
Ntp210
Rp211
(dp212
g19
I0
sbs(I27
I27
tp213
g0
(g15
g2
Ntp214
Rp215
(dp216
g19
I1
sbs(I18
I25
tp217
g0
(g15
g2
Ntp218
Rp219
(dp220
g19
I5
sbs(I33
I23
tp221
g0
(g15
g2
Ntp222
Rp223
(dp224
g19
I5
sbs(I32
I25
tp225
g0
(g15
g2
Ntp226
Rp227
(dp228
g19
I6
sbs(I39
I27
tp229
g0
(g15
g2
Ntp230
Rp231
(dp232
g19
I1
sbs(I44
I25
tp233
g0
(g15
g2
Ntp234
Rp235
(dp236
g19
I5
sbs(I19
I23
tp237
g0
(g15
g2
Ntp238
Rp239
(dp240
g19
I5
sbs(I6
I40
tp241
g0
(g15
g2
Ntp242
Rp243
(dp244
g19
I6
sbs(I34
I14
tp245
g0
(g15
g2
Ntp246
Rp247
(dp248
g28
I0
sbs(I52
I27
tp249
g0
(g15
g2
Ntp250
Rp251
(dp252
g19
I1
sbs(I40
I26
tp253
g0
(g15
g2
Ntp254
Rp255
(dp256
g19
I5
sbs(I5
I40
tp257
g0
(g15
g2
Ntp258
Rp259
(dp260
g28
I5
sbs(I26
I24
tp261
g0
(g15
g2
Ntp262
Rp263
(dp264
g28
I5
sbs(I41
I27
tp265
g0
(g15
g2
Ntp266
Rp267
(dp268
g19
I1
sbs(I47
I24
tp269
g0
(g15
g2
Ntp270
Rp271
(dp272
g19
I5
sbs(I12
I27
tp273
g0
(g15
g2
Ntp274
Rp275
(dp276
g19
I1
sbs(I52
I24
tp277
g0
(g15
g2
Ntp278
Rp279
(dp280
g19
I5
sbs(I26
I23
tp281
g0
(g15
g2
Ntp282
Rp283
(dp284
g19
I5
sbs(I22
I26
tp285
g0
(g15
g2
Ntp286
Rp287
(dp288
g19
I5
sbs(I13
I26
tp289
g0
(g15
g2
Ntp290
Rp291
(dp292
g28
I5
sbs(I18
I26
tp293
g0
(g15
g2
Ntp294
Rp295
(dp296
g19
I5
sbs(I17
I26
tp297
g0
(g15
g2
Ntp298
Rp299
(dp300
g28
I5
sbs(I48
I27
tp301
g0
(g15
g2
Ntp302
Rp303
(dp304
g19
I1
sbs(I29
I23
tp305
g0
(g15
g2
Ntp306
Rp307
(dp308
g19
I5
sbs(I34
I25
tp309
g0
(g15
g2
Ntp310
Rp311
(dp312
g19
I6
sbs(I49
I26
tp313
g0
(g15
g2
Ntp314
Rp315
(dp316
g19
I5
sbs(I40
I27
tp317
g0
(g15
g2
Ntp318
Rp319
(dp320
g19
I1
sbs(I15
I26
tp321
g0
(g15
g2
Ntp322
Rp323
(dp324
g28
I5
sbs(I22
I24
tp325
g0
(g15
g2
Ntp326
Rp327
(dp328
g19
I5
sbs(I30
I27
tp329
g0
(g15
g2
Ntp330
Rp331
(dp332
g19
I1
sbs(I20
I26
tp333
g0
(g15
g2
Ntp334
Rp335
(dp336
g19
I5
sbs(I35
I25
tp337
g0
(g15
g2
Ntp338
Rp339
(dp340
g19
I6
sbs(I15
I23
tp341
g0
(g15
g2
Ntp342
Rp343
(dp344
g19
I5
sbs(I40
I23
tp345
g0
(g15
g2
Ntp346
Rp347
(dp348
g19
I5
sbs(I21
I27
tp349
g0
(g15
g2
Ntp350
Rp351
(dp352
g19
I1
sbs(I51
I26
tp353
g0
(g15
g2
Ntp354
Rp355
(dp356
g19
I5
sbs(I15
I25
tp357
g0
(g15
g2
Ntp358
Rp359
(dp360
g19
I5
sbs(I12
I24
tp361
g0
(g15
g2
Ntp362
Rp363
(dp364
g19
I5
sbs(I43
I23
tp365
g0
(g15
g2
Ntp366
Rp367
(dp368
g19
I5
sbs(I17
I24
tp369
g0
(g15
g2
Ntp370
Rp371
(dp372
g19
I5
sbs(I38
I24
tp373
g0
(g15
g2
Ntp374
Rp375
(dp376
g19
I5
sbs(I28
I27
tp377
g0
(g15
g2
Ntp378
Rp379
(dp380
g19
I1
sbs(I43
I24
tp381
g0
(g15
g2
Ntp382
Rp383
(dp384
g19
I5
sbs(I48
I24
tp385
g0
(g15
g2
Ntp386
Rp387
(dp388
g19
I5
sbs(I29
I26
tp389
g0
(g15
g2
Ntp390
Rp391
(dp392
g19
I5
sbs(I35
I14
tp393
g0
(g15
g2
Ntp394
Rp395
(dp396
g28
I0
sbs(I50
I23
tp397
g0
(g15
g2
Ntp398
Rp399
(dp400
g19
I5
sbs(I19
I28
tp401
g0
(g15
g2
Ntp402
Rp403
(dp404
g19
I0
sbs(I41
I15
tp405
g0
(g15
g2
Ntp406
Rp407
(dp408
g28
I0
sbs(I25
I25
tp409
g0
(g15
g2
Ntp410
Rp411
(dp412
g19
I5
sbs(I16
I23
tp413
g0
(g15
g2
Ntp414
Rp415
(dp416
g19
I5
sbs(I46
I27
tp417
g0
(g15
g2
Ntp418
Rp419
(dp420
g19
I1
sbs(I37
I25
tp421
g0
(g15
g2
Ntp422
Rp423
(dp424
g19
I6
sbs(I11
I26
tp425
g0
(g15
g2
Ntp426
Rp427
(dp428
g19
I5
sbs(I51
I25
tp429
g0
(g15
g2
Ntp430
Rp431
(dp432
g19
I5
sbs(I42
I27
tp433
g0
(g15
g2
Ntp434
Rp435
(dp436
g19
I1
sbs(I16
I26
tp437
g0
(g15
g2
Ntp438
Rp439
(dp440
g19
I5
sbs(I17
I27
tp441
g0
(g15
g2
Ntp442
Rp443
(dp444
g19
I1
sbs(I23
I24
tp445
g0
(g15
g2
Ntp446
Rp447
(dp448
g19
I5
sbs(I39
I23
tp449
g0
(g15
g2
Ntp450
Rp451
(dp452
g19
I5
sbs(I29
I16
tp453
g0
(g15
g2
Ntp454
Rp455
(dp456
g19
I0
sbs(I28
I24
tp457
g0
(g15
g2
Ntp458
Rp459
(dp460
g19
I5
sbs(I33
I24
tp461
g0
(g15
g2
Ntp462
Rp463
(dp464
g19
I1
sbs(I45
I24
tp465
g0
(g15
g2
Ntp466
Rp467
(dp468
g19
I5
sbs(I50
I24
tp469
g0
(g15
g2
Ntp470
Rp471
(dp472
g19
I5
sbs(I14
I25
tp473
g0
(g15
g2
Ntp474
Rp475
(dp476
g19
I5
sbs(I36
I14
tp477
g0
(g15
g2
Ntp478
Rp479
(dp480
g28
I0
sbs(I10
I25
tp481
g0
(g15
g2
Ntp482
Rp483
(dp484
g19
I5
sbs(I24
I25
tp485
g0
(g15
g2
Ntp486
Rp487
(dp488
g19
I5
sbs(I20
I28
tp489
g0
(g15
g2
Ntp490
Rp491
(dp492
g19
I0
sbs(I36
I25
tp493
g0
(g15
g2
Ntp494
Rp495
(dp496
g19
I6
sbs(I21
I24
tp497
g0
(g15
g2
Ntp498
Rp499
(dp500
g19
I5
sbs(I12
I23
tp501
g0
(g15
g2
Ntp502
Rp503
(dp504
g19
I5
sbs(I11
I25
tp505
g0
(g15
g2
Ntp506
Rp507
(dp508
g19
I5
sbs(I26
I19
tp509
g0
(g15
g2
Ntp510
Rp511
(dp512
g28
I0
sbs(I32
I23
tp513
g0
(g15
g2
Ntp514
Rp515
(dp516
g19
I5
sbs(I28
I18
tp517
g0
(g15
g2
Ntp518
Rp519
(dp520
g28
I0
sbs(I52
I23
tp521
g0
(g15
g2
Ntp522
Rp523
(dp524
g19
I5
sbs(I39
I26
tp525
g0
(g15
g2
Ntp526
Rp527
(dp528
g19
I5
sbs(I44
I26
tp529
g0
(g15
g2
Ntp530
Rp531
(dp532
g19
I5
sbs(I39
I15
tp533
g0
(g15
g2
Ntp534
Rp535
(dp536
g28
I0
sbs(I45
I27
tp537
g0
(g15
g2
Ntp538
Rp539
(dp540
g19
I1
sbs(I27
I23
tp541
g0
(g15
g2
Ntp542
Rp543
(dp544
g28
I5
sbs(I14
I26
tp545
g0
(g15
g2
Ntp546
Rp547
(dp548
g28
I5
sbs(I10
I26
tp549
g0
(g15
g2
Ntp550
Rp551
(dp552
g19
I5
sbs(I22
I23
tp553
g0
(g15
g2
Ntp554
Rp555
(dp556
g19
I5
sbs(I27
I26
tp557
g0
(g15
g2
Ntp558
Rp559
(dp560
g19
I5
sbs(I26
I25
tp561
g0
(g15
g2
Ntp562
Rp563
(dp564
g19
I5
sbs(I25
I23
tp565
g0
(g15
g2
Ntp566
Rp567
(dp568
g19
I5
sbs(I41
I26
tp569
g0
(g15
g2
Ntp570
Rp571
(dp572
g19
I5
sbs(I25
I26
tp573
g0
(g15
g2
Ntp574
Rp575
(dp576
g19
I5
sbs(I52
I25
tp577
g0
(g15
g2
Ntp578
Rp579
(dp580
g19
I5
sbs(I26
I20
tp581
g0
(g15
g2
Ntp582
Rp583
(dp584
g28
I0
sbs(I17
I28
tp585
g0
(g15
g2
Ntp586
Rp587
(dp588
g19
I0
sbs(I22
I27
tp589
g0
(g15
g2
Ntp590
Rp591
(dp592
g19
I1
sbs(I13
I25
tp593
g0
(g15
g2
Ntp594
Rp595
(dp596
g19
I5
sbs(I28
I23
tp597
g0
(g15
g2
Ntp598
Rp599
(dp600
g19
I5
sbs(I27
I25
tp601
g0
(g15
g2
Ntp602
Rp603
(dp604
g19
I5
sbs(I18
I27
tp605
g0
(g15
g2
Ntp606
Rp607
(dp608
g19
I1
sbs(I39
I25
tp609
g0
(g15
g2
Ntp610
Rp611
(dp612
g19
I5
sbs(I49
I25
tp613
g0
(g15
g2
Ntp614
Rp615
(dp616
g19
I5
sbs(I14
I23
tp617
g0
(g15
g2
Ntp618
Rp619
(dp620
g19
I5
sbs(I30
I24
tp621
g0
(g15
g2
Ntp622
Rp623
(dp624
g19
I5
sbs(I20
I27
tp625
g0
(g15
g2
Ntp626
Rp627
(dp628
g19
I1
sbs(I35
I24
tp629
g0
(g15
g2
Ntp630
Rp631
(dp632
g19
I1
sbs(I40
I24
tp633
g0
(g15
g2
Ntp634
Rp635
(dp636
g19
I5
sbs(I21
I26
tp637
g0
(g15
g2
Ntp638
Rp639
(dp640
g19
I5
sbs(I26
I26
tp641
g0
(g15
g2
Ntp642
Rp643
(dp644
g19
I5
sbs(I36
I23
tp645
g0
(g15
g2
Ntp646
Rp647
(dp648
g19
I5
sbs(I17
I23
tp649
g0
(g15
g2
Ntp650
Rp651
(dp652
g19
I5
sbs(I12
I25
tp653
g0
(g15
g2
Ntp654
Rp655
(dp656
g19
I5
sbs(I4
I39
tp657
g0
(g15
g2
Ntp658
Rp659
(dp660
S'tile'
p661
I0
sbs(I38
I25
tp662
g0
(g15
g2
Ntp663
Rp664
(dp665
g19
I5
sbs(I18
I28
tp666
g0
(g15
g2
Ntp667
Rp668
(dp669
g19
I0
sbs(I49
I23
tp670
g0
(g15
g2
Ntp671
Rp672
(dp673
g19
I5
sbs(I48
I25
tp674
g0
(g15
g2
Ntp675
Rp676
(dp677
g19
I5
sbs(I29
I25
tp678
g0
(g15
g2
Ntp679
Rp680
(dp681
g19
I5
sbs(I40
I15
tp682
g0
(g15
g2
Ntp683
Rp684
(dp685
g28
I0
sbs(I15
I24
tp686
g0
(g15
g2
Ntp687
Rp688
(dp689
g19
I5
sbs(I20
I24
tp690
g0
(g15
g2
Ntp691
Rp692
(dp693
g19
I5
sbs(I35
I23
tp694
g0
(g15
g2
Ntp695
Rp696
(dp697
g19
I5
sbs(I25
I24
tp698
g0
(g15
g2
Ntp699
Rp700
(dp701
g28
I5
sbs(I31
I16
tp702
g0
(g15
g2
Ntp703
Rp704
(dp705
g19
I0
sbs(I46
I24
tp706
g0
(g15
g2
Ntp707
Rp708
(dp709
g19
I5
sbs(I37
I24
tp710
g0
(g15
g2
Ntp711
Rp712
(dp713
g19
I1
sbs(I51
I24
tp714
g0
(g15
g2
Ntp715
Rp716
(dp717
g19
I5
sbs(I42
I24
tp718
g0
(g15
g2
Ntp719
Rp720
(dp721
g19
I5
sbs(I16
I27
tp722
g0
(g15
g2
Ntp723
Rp724
(dp725
g19
I1
sbs(I38
I23
tp726
g0
(g15
g2
Ntp727
Rp728
(dp729
g19
I5
sbs(I42
I23
tp730
g0
(g15
g2
Ntp731
Rp732
(dp733
g19
I5
sbs(I23
I27
tp734
g0
(g15
g2
Ntp735
Rp736
(dp737
g19
I1
sbs(I38
I26
tp738
g0
(g15
g2
Ntp739
Rp740
(dp741
g19
I5
sbs(I28
I25
tp742
g0
(g15
g2
Ntp743
Rp744
(dp745
g19
I5
sbs(I45
I23
tp746
g0
(g15
g2
Ntp747
Rp748
(dp749
g19
I5
sbs(I50
I25
tp750
g0
(g15
g2
Ntp751
Rp752
(dp753
g19
I5
sbs(I33
I15
tp754
g0
(g15
g2
Ntp755
Rp756
(dp757
g28
I0
sbs(I19
I26
tp758
g0
(g15
g2
Ntp759
Rp760
(dp761
g28
I5
sbs(I24
I26
tp762
g0
(g15
g2
Ntp763
Rp764
(dp765
g19
I5
sbs(I19
I27
tp766
g0
(g15
g2
Ntp767
Rp768
(dp769
g19
I1
sbs(I37
I14
tp770
g0
(g15
g2
Ntp771
Rp772
(dp773
g28
I0
sbs(I11
I23
tp774
g0
(g15
g2
Ntp775
Rp776
(dp777
g19
I5
sbs(I25
I27
tp778
g0
(g15
g2
Ntp779
Rp780
(dp781
g19
I1
sbs(I31
I23
tp782
g0
(g15
g2
Ntp783
Rp784
(dp785
g19
I5
sbs(I43
I15
tp786
g0
(g15
g2
Ntp787
Rp788
(dp789
g28
I0
sbs(I11
I24
tp790
g0
(g15
g2
Ntp791
Rp792
(dp793
g19
I5
sbs(I51
I23
tp794
g0
(g15
g2
Ntp795
Rp796
(dp797
g19
I5
sbs(I16
I24
tp798
g0
(g15
g2
Ntp799
Rp800
(dp801
g19
I5
sbs(I18
I23
tp802
g0
(g15
g2
Ntp803
Rp804
(dp805
g19
I5
sbs(I44
I27
tp806
g0
(g15
g2
Ntp807
Rp808
(dp809
g19
I1
sbs(I43
I16
tp810
g0
(g15
g2
Ntp811
Rp812
(dp813
g28
I0
sbs(I50
I26
tp814
g0
(g15
g2
Ntp815
Rp816
(dp817
g19
I5
sbs(I14
I27
tp818
g0
(g15
g2
Ntp819
Rp820
(dp821
g19
I1
sbs(I19
I25
tp822
g0
(g15
g2
Ntp823
Rp824
(dp825
g19
I5
sbs(I10
I27
tp826
g0
(g15
g2
Ntp827
Rp828
(dp829
g19
I1
sbs(I24
I23
tp830
g0
(g15
g2
Ntp831
Rp832
(dp833
g19
I5
sbs(I31
I25
tp834
g0
(g15
g2
Ntp835
Rp836
(dp837
g19
I6
sbs(I47
I27
tp838
g0
(g15
g2
Ntp839
Rp840
(dp841
g19
I1
sbs(I41
I25
tp842
g0
(g15
g2
Ntp843
Rp844
(dp845
g19
I5
sbs(I47
I26
tp846
g0
(g15
g2
Ntp847
Rp848
(dp849
g19
I5
sbs(I38
I14
tp850
g0
(g15
g2
Ntp851
Rp852
(dp853
g28
I0
sbs(I52
I26
tp854
g0
(g15
g2
Ntp855
Rp856
(dp857
g19
I5
sbs(I26
I21
tp858
g0
(g15
g2
Ntp859
Rp860
(dp861
g28
I0
sbs(I5
I39
tp862
g0
(g15
g2
Ntp863
Rp864
(dp865
g19
I0
sbs(I47
I23
tp866
g0
(g15
g2
Ntp867
Rp868
(dp869
g19
I5
sbs(I13
I24
tp870
g0
(g15
g2
Ntp871
Rp872
(dp873
g19
I5
sbs(I53
I27
tp874
g0
(g15
g2
Ntp875
Rp876
(dp877
g19
I0
sbs(I27
I24
tp878
g0
(g15
g2
Ntp879
Rp880
(dp881
g19
I5
sbs(I18
I24
tp882
g0
(g15
g2
Ntp883
Rp884
(dp885
g19
I5
sbs(I32
I24
tp886
g0
(g15
g2
Ntp887
Rp888
(dp889
g19
I1
sbs(I39
I24
tp890
g0
(g15
g2
Ntp891
Rp892
(dp893
g19
I5
sbs(I44
I24
tp894
g0
(g15
g2
Ntp895
Rp896
(dp897
g19
I5
sbs(I34
I23
tp898
g0
(g15
g2
Ntp899
Rp900
(dp901
g19
I5
sbs(I49
I24
tp902
g0
(g15
g2
Ntp903
Rp904
(dp905
g19
I5
sbs(I30
I25
tp906
g0
(g15
g2
Ntp907
Rp908
(dp909
g19
I5
sbs(I14
I24
tp910
g0
(g15
g2
Ntp911
Rp912
(dp913
g19
I5
sbs(I40
I25
tp914
g0
(g15
g2
Ntp915
Rp916
(dp917
g19
I5
sbs(I21
I25
tp918
g0
(g15
g2
Ntp919
Rp920
(dp921
g19
I5
sbs(I20
I23
tp922
g0
(g15
g2
Ntp923
Rp924
(dp925
g19
I5
sbs(I26
I27
tp926
g0
(g15
g2
Ntp927
Rp928
(dp929
g19
I1
sbs(I47
I25
tp930
g0
(g15
g2
Ntp931
Rp932
(dp933
g19
I5
sbs(I12
I26
tp934
g0
(g15
g2
Ntp935
Rp936
(dp937
g28
I5
sbs(I27
I18
tp938
g0
(g15
g2
Ntp939
Rp940
(dp941
g28
I0
sbs(I26
I22
tp942
g0
(g15
g2
Ntp943
Rp944
(dp945
g28
I0
sbs(I23
I23
tp946
g0
(g15
g2
Ntp947
Rp948
(dp949
g19
I5
sbs(I48
I23
tp950
g0
(g15
g2
Ntp951
Rp952
(dp953
g19
I5
sbs(I13
I27
tp954
g0
(g15
g2
Ntp955
Rp956
(dp957
g19
I1
sbs(I50
I27
tp958
g0
(g15
g2
Ntp959
Rp960
(dp961
g19
I1
sbs(I43
I26
tp962
g0
(g15
g2
Ntp963
Rp964
(dp965
g19
I5
sbs(I48
I26
tp966
g0
(g15
g2
Ntp967
Rp968
(dp969
g19
I5
sbs(I29
I24
tp970
g0
(g15
g2
Ntp971
Rp972
(dp973
g19
I5
sbs(I34
I24
tp974
g0
(g15
g2
Ntp975
Rp976
(dp977
g19
I1
sbs(I49
I27
tp978
g0
(g15
g2
Ntp979
Rp980
(dp981
g19
I1
sbs(I43
I27
tp982
g0
(g15
g2
Ntp983
Rp984
(dp985
g19
I1
sbssS'tile_count_x'
p986
I0
sb.